target datalayout = "e-m:e-p270:32:32-p271:32:32-p272:64:64-i64:64-i128:128-f80:128-n8:16:32:64-S128"
target triple = "x86_64-pc-linux-gnu"

%struct.pmix_output_desc_t = type { i8, i8, i32, i8, i32, ptr, ptr, i32, ptr, i32, i8, i8, i8, i8, ptr, i32, i32 }

@pmix_output_info = global [64 x %struct.pmix_output_desc_t] zeroinitializer, align 16

; Function Attrs: nounwind uwtable
define i32 @pmix_output_get_verbosity(i32 noundef %0) #0 {
  %2 = alloca i32, align 4
  %3 = alloca i32, align 4
  store i32 %0, ptr %3, align 4, !tbaa !33
  %4 = load i32, ptr %3, align 4, !tbaa !33
  %5 = icmp sge i32 %4, 0
  br i1 %5, label %6, label %22

6:                                                ; preds = %1
  %7 = load i32, ptr %3, align 4, !tbaa !33
  %8 = icmp slt i32 %7, 64
  br i1 %8, label %9, label %22

9:                                                ; preds = %6
  %10 = load i32, ptr %3, align 4, !tbaa !33
  %11 = sext i32 %10 to i64
  %12 = getelementptr inbounds [64 x %struct.pmix_output_desc_t], ptr @pmix_output_info, i64 0, i64 %11
  %13 = getelementptr inbounds nuw %struct.pmix_output_desc_t, ptr %12, i32 0, i32 0
  %14 = load i8, ptr %13, align 8, !tbaa !40, !range !30, !noundef !31
  %15 = trunc i8 %14 to i1
  br i1 %15, label %16, label %22

16:                                               ; preds = %9
  %17 = load i32, ptr %3, align 4, !tbaa !33
  %18 = sext i32 %17 to i64
  %19 = getelementptr inbounds [64 x %struct.pmix_output_desc_t], ptr @pmix_output_info, i64 0, i64 %18
  %20 = getelementptr inbounds nuw %struct.pmix_output_desc_t, ptr %19, i32 0, i32 2
  %21 = load i32, ptr %20, align 4, !tbaa !66
  store i32 %21, ptr %2, align 4
  br label %23

22:                                               ; preds = %9, %6, %1
  store i32 -1, ptr %2, align 4
  br label %23

23:                                               ; preds = %22, %16
  %24 = load i32, ptr %2, align 4
  ret i32 %24
}