; Function Attrs: mustprogress nofree norecurse nosync nounwind willreturn memory(read, argmem: none, inaccessiblemem: none) uwtable
define i32 @pmix_output_get_verbosity(i32 noundef %0) local_unnamed_addr #15 {
  %or.cond = icmp ult i32 %0, 64
  br i1 %or.cond, label %2, label %10

2:                                                ; preds = %1
  %3 = zext nneg i32 %0 to i64
  %4 = getelementptr inbounds nuw [64 x %struct.pmix_output_desc_t], ptr @pmix_output_info, i64 0, i64 %3
  %5 = load i8, ptr %4, align 8, !tbaa !34, !range !26, !noundef !27
  %6 = trunc nuw i8 %5 to i1
  br i1 %6, label %7, label %10

7:                                                ; preds = %2
  %8 = getelementptr inbounds nuw i8, ptr %4, i64 4
  %9 = load i32, ptr %8, align 4, !tbaa !47
  br label %10

10:                                               ; preds = %1, %2, %7
  %.0 = phi i32 [ %9, %7 ], [ -1, %2 ], [ -1, %1 ]
  ret i32 %.0
}